Certificate:
    Data:
        Version: 3 (0x2)
        Serial Number: 13518983998417831535 (0xbb9d1451e5e2866f)
    Signature Algorithm: sha256WithRSAEncryption
        Issuer: C=VE, ST=Dtto Capital, O=UCAB, OU=UCAB, CN=CAIBancoVendedor/emailAddress=CAIBancoVendedor@gmail.com
        Validity
            Not Before: Dec 29 01:00:29 2017 GMT
            Not After : Dec 29 01:00:29 2018 GMT
        Subject: C=VE, ST=Dtto Capital, L=Caracas, O=UCAB, OU=UCAB, CN=clientevendedor
        Subject Public Key Info:
            Public Key Algorithm: rsaEncryption
                Public-Key: (2048 bit)
                Modulus:
                    00:9c:5b:f3:ac:ac:de:b2:13:89:7f:28:09:05:a7:
                    9d:60:31:f4:53:4e:db:a9:b2:2c:8d:4e:9f:4c:be:
                    88:35:2e:51:bb:74:ab:28:8a:c8:1a:29:15:be:13:
                    27:03:76:17:b5:cf:8b:18:d6:d9:48:f0:54:09:c9:
                    6b:9c:0d:fc:06:ac:88:e6:2e:7d:8b:6e:67:0f:60:
                    a1:a8:f4:d5:82:67:02:f7:7d:83:b8:57:32:ef:aa:
                    d4:99:51:82:38:d5:d7:3d:86:c3:54:e3:ce:0a:89:
                    15:b7:33:ae:17:a9:ff:5b:0a:b1:5e:f9:4e:69:ba:
                    d1:ab:4c:bb:91:15:53:b7:71:fc:fa:69:db:1a:61:
                    90:05:97:c5:81:25:40:2f:4d:16:3b:45:d9:f1:0c:
                    f2:f8:24:e8:83:87:69:24:f0:07:0e:83:b5:3f:2b:
                    ce:41:f6:9a:77:da:81:64:72:38:84:a2:80:ff:e2:
                    11:b5:98:66:c7:d9:1c:d1:2d:72:3c:dc:68:e0:73:
                    6b:a3:b9:61:e0:f6:96:c6:04:db:15:c6:3e:0d:8d:
                    9f:a2:5b:b8:99:19:b2:e8:87:1a:99:92:81:e2:5d:
                    dd:02:54:43:d3:b4:77:15:b0:c9:e3:5a:16:dd:c4:
                    a1:09:09:fc:74:09:0d:c1:48:ab:82:1e:11:e6:5b:
                    85:19
                Exponent: 65537 (0x10001)
        X509v3 extensions:
            X509v3 Basic Constraints: 
                CA:FALSE
            Netscape Comment: 
                OpenSSL Generated Certificate
            X509v3 Subject Key Identifier: 
                D2:E4:F7:0A:89:DF:12:59:D8:DC:6D:20:1E:C7:43:38:E0:39:A0:42
            X509v3 Authority Key Identifier: 
                keyid:F5:3F:B4:75:6E:82:EB:16:3E:3C:ED:D7:2B:25:A1:59:01:CF:69:DA

    Signature Algorithm: sha256WithRSAEncryption
         c4:70:98:3a:73:34:69:eb:44:8e:c5:23:4e:00:91:79:31:ce:
         14:53:30:3b:e6:fe:cc:3b:df:19:32:ad:8c:77:e0:84:8d:41:
         aa:c5:53:94:30:36:64:96:27:b2:13:64:9d:a7:e4:df:eb:d7:
         64:75:a3:12:1a:a2:66:1d:fc:01:bb:03:64:bc:32:76:43:5e:
         06:94:e7:90:6f:5f:ea:22:f0:a9:46:43:34:87:dd:36:b3:80:
         e4:04:8b:4b:36:b3:25:48:58:7a:d1:4e:85:97:24:34:f5:8a:
         64:93:d9:4b:03:ca:d0:87:ae:52:96:5f:12:18:90:d6:b6:3b:
         62:29:56:ed:1b:24:36:a0:4a:b9:c7:03:3c:44:a2:2e:fd:94:
         28:65:b1:aa:22:9e:67:68:a3:d3:c6:8f:6f:6d:cd:96:d7:a2:
         93:77:4f:71:b5:b8:6b:07:e4:da:5d:8a:e9:d1:e9:f6:b5:ca:
         d1:ba:4a:a8:8e:5b:47:54:1f:8a:76:79:7f:69:40:2e:51:5f:
         f7:a1:4d:0b:c6:c9:51:5d:fa:03:18:eb:96:43:f6:8a:93:a5:
         ee:54:8e:cb:a6:87:d4:3b:aa:0a:48:2a:f7:0c:6c:da:60:98:
         8e:75:dc:af:a8:be:77:de:25:9a:db:07:d8:58:3d:66:e0:89:
         71:2a:88:b1
-----BEGIN CERTIFICATE-----
MIID9TCCAt2gAwIBAgIJALudFFHl4oZvMA0GCSqGSIb3DQEBCwUAMIGIMQswCQYD
VQQGEwJWRTEVMBMGA1UECAwMRHR0byBDYXBpdGFsMQ0wCwYDVQQKDARVQ0FCMQ0w
CwYDVQQLDARVQ0FCMRkwFwYDVQQDDBBDQUlCYW5jb1ZlbmRlZG9yMSkwJwYJKoZI
hvcNAQkBFhpDQUlCYW5jb1ZlbmRlZG9yQGdtYWlsLmNvbTAeFw0xNzEyMjkwMTAw
MjlaFw0xODEyMjkwMTAwMjlaMG4xCzAJBgNVBAYTAlZFMRUwEwYDVQQIEwxEdHRv
IENhcGl0YWwxEDAOBgNVBAcTB0NhcmFjYXMxDTALBgNVBAoTBFVDQUIxDTALBgNV
BAsTBFVDQUIxGDAWBgNVBAMTD2NsaWVudGV2ZW5kZWRvcjCCASIwDQYJKoZIhvcN
AQEBBQADggEPADCCAQoCggEBAJxb86ys3rITiX8oCQWnnWAx9FNO26myLI1On0y+
iDUuUbt0qyiKyBopFb4TJwN2F7XPixjW2UjwVAnJa5wN/AasiOYufYtuZw9goaj0
1YJnAvd9g7hXMu+q1JlRgjjV1z2Gw1TjzgqJFbczrhep/1sKsV75Tmm60atMu5EV
U7dx/Ppp2xphkAWXxYElQC9NFjtF2fEM8vgk6IOHaSTwBw6DtT8rzkH2mnfagWRy
OISigP/iEbWYZsfZHNEtcjzcaOBza6O5YeD2lsYE2xXGPg2Nn6JbuJkZsuiHGpmS
geJd3QJUQ9O0dxWwyeNaFt3EoQkJ/HQJDcFIq4IeEeZbhRkCAwEAAaN7MHkwCQYD
VR0TBAIwADAsBglghkgBhvhCAQ0EHxYdT3BlblNTTCBHZW5lcmF0ZWQgQ2VydGlm
aWNhdGUwHQYDVR0OBBYEFNLk9wqJ3xJZ2NxtIB7HQzjgOaBCMB8GA1UdIwQYMBaA
FPU/tHVugusWPjzt1ysloVkBz2naMA0GCSqGSIb3DQEBCwUAA4IBAQDEcJg6czRp
60SOxSNOAJF5Mc4UUzA75v7MO98ZMq2Md+CEjUGqxVOUMDZklieyE2Sdp+Tf69dk
daMSGqJmHfwBuwNkvDJ2Q14GlOeQb1/qIvCpRkM0h902s4DkBItLNrMlSFh60U6F
lyQ09Ypkk9lLA8rQh65Sll8SGJDWtjtiKVbtGyQ2oEq5xwM8RKIu/ZQoZbGqIp5n
aKPTxo9vbc2W16KTd09xtbhrB+TaXYrp0en2tcrRukqojltHVB+Kdnl/aUAuUV/3
oU0LxslRXfoDGOuWQ/aKk6XuVI7LpofUO6oKSCr3DGzaYJiOddyvqL533iWa2wfY
WD1m4IlxKoix
-----END CERTIFICATE-----
